ARM GAS  C:\Users\gusta\AppData\Local\Temp\ccQ0bztc.s 			page 1


   1              		.syntax unified
   2              		.cpu cortex-m3
   3              		.fpu softvfp
   4              		.eabi_attribute 20, 1
   5              		.eabi_attribute 21, 1
   6              		.eabi_attribute 23, 3
   7              		.eabi_attribute 24, 1
   8              		.eabi_attribute 25, 1
   9              		.eabi_attribute 26, 1
  10              		.eabi_attribute 30, 1
  11              		.eabi_attribute 34, 1
  12              		.eabi_attribute 18, 4
  13              		.thumb
  14              		.syntax unified
  15              		.file	"main.c"
  16              		.text
  17              	.Ltext0:
  18              		.cfi_sections	.debug_frame
  19              		.syntax unified
  20              		.global _printf_float
  21              		.thumb
  22              		.syntax unified
  23              		.section	.text.main,"ax",%progbits
  24              		.align	2
  25              		.global	main
  26              		.thumb
  27              		.thumb_func
  28              		.type	main, %function
  29              	main:
  30              	.LFB64:
  31              		.file 1 "main.c"
   1:main.c        **** /* ========================================
   2:main.c        ****  *
   3:main.c        ****  * Copyright YOUR COMPANY, THE YEAR
   4:main.c        ****  * All Rights Reserved
   5:main.c        ****  * UNPUBLISHED, LICENSED SOFTWARE.
   6:main.c        ****  *
   7:main.c        ****  * CONFIDENTIAL AND PROPRIETARY INFORMATION
   8:main.c        ****  * WHICH IS THE PROPERTY OF your company.
   9:main.c        ****  *
  10:main.c        ****  * ========================================
  11:main.c        **** */
  12:main.c        **** #include "project.h"
  13:main.c        **** #include "stdio.h"
  14:main.c        **** 
  15:main.c        **** #if defined (__GNUC__)
  16:main.c        ****     /* Add an explicit reference to the floating point printf library */
  17:main.c        ****     /* to allow usage of the floating point conversion specifiers. */
  18:main.c        ****     /* This is not linked in by default with the newlib-nano library. */
  19:main.c        ****     asm (".global _printf_float");
  20:main.c        **** #endif
  21:main.c        **** 
  22:main.c        **** #define USBFS_DEVICE    (0u)
  23:main.c        **** 
  24:main.c        **** /* The buffer size is equal to the maximum packet size of the IN and OUT bulk
  25:main.c        **** * endpoints.
  26:main.c        **** */
ARM GAS  C:\Users\gusta\AppData\Local\Temp\ccQ0bztc.s 			page 2


  27:main.c        **** #define USBUART_BUFFER_SIZE (64u)
  28:main.c        **** #define LINE_STR_LENGTH     (45u)
  29:main.c        **** char8* parity[] = {"None", "Odd", "Even", "Mark", "Space"};
  30:main.c        **** char8* stop[]   = {"1", "1.5", "2"};
  31:main.c        **** 
  32:main.c        **** int main(void)
  33:main.c        **** {
  32              		.loc 1 33 0
  33              		.cfi_startproc
  34              		@ args = 0, pretend = 0, frame = 112
  35              		@ frame_needed = 0, uses_anonymous_args = 0
  36 0000 2DE9F043 		push	{r4, r5, r6, r7, r8, r9, lr}
  37              		.cfi_def_cfa_offset 28
  38              		.cfi_offset 4, -28
  39              		.cfi_offset 5, -24
  40              		.cfi_offset 6, -20
  41              		.cfi_offset 7, -16
  42              		.cfi_offset 8, -12
  43              		.cfi_offset 9, -8
  44              		.cfi_offset 14, -4
  45 0004 9FB0     		sub	sp, sp, #124
  46              		.cfi_def_cfa_offset 152
  34:main.c        ****     uint16 count;
  35:main.c        ****     uint8 buffer[USBUART_BUFFER_SIZE];
  36:main.c        ****     uint8 state;
  37:main.c        ****     char8 lineStr[LINE_STR_LENGTH];
  38:main.c        ****     
  39:main.c        ****     CyGlobalIntEnable; /* Enable global interrupts. */
  47              		.loc 1 39 0
  48              		.syntax unified
  49              	@ 39 "main.c" 1
  50 0006 62B6     		CPSIE   i
  51              	@ 0 "" 2
  40:main.c        ****     USBUART_Start(USBFS_DEVICE, USBUART_5V_OPERATION);
  52              		.loc 1 40 0
  53              		.thumb
  54              		.syntax unified
  55 0008 0121     		movs	r1, #1
  56 000a 0020     		movs	r0, #0
  57 000c FFF7FEFF 		bl	USBUART_Start
  58              	.LVL0:
  41:main.c        ****     
  42:main.c        ****     int ledState = BoardLed_Read();    
  59              		.loc 1 42 0
  60 0010 FFF7FEFF 		bl	BoardLed_Read
  61              	.LVL1:
  62 0014 0546     		mov	r5, r0
  63              	.LVL2:
  64              	.L13:
  43:main.c        ****    
  44:main.c        ****     for(;;)
  45:main.c        ****     {
  46:main.c        ****         /* Host can send double SET_INTERFACE request. */
  47:main.c        ****         if (0u != USBUART_IsConfigurationChanged()) //Si la configaración ha cambiado
  65              		.loc 1 47 0
  66 0016 FFF7FEFF 		bl	USBUART_IsConfigurationChanged
  67              	.LVL3:
ARM GAS  C:\Users\gusta\AppData\Local\Temp\ccQ0bztc.s 			page 3


  68 001a 20B1     		cbz	r0, .L3
  48:main.c        ****         {
  49:main.c        ****             /* Initialize IN endpoints when device is configured. */
  50:main.c        ****             if (0u != USBUART_GetConfiguration())
  69              		.loc 1 50 0
  70 001c FFF7FEFF 		bl	USBUART_GetConfiguration
  71              	.LVL4:
  72 0020 08B1     		cbz	r0, .L3
  51:main.c        ****             {
  52:main.c        ****                 /* Enumeration is done, enable OUT endpoint to receive data 
  53:main.c        ****                  * from host. */
  54:main.c        ****                 USBUART_CDC_Init();
  73              		.loc 1 54 0
  74 0022 FFF7FEFF 		bl	USBUART_CDC_Init
  75              	.LVL5:
  76              	.L3:
  55:main.c        ****             }
  56:main.c        ****         }
  57:main.c        ****         
  58:main.c        ****         /* Service USB CDC when device is configured. */
  59:main.c        ****         if (0u != USBUART_GetConfiguration()) /* Si el puerto ha sido configurado */
  77              		.loc 1 59 0
  78 0026 FFF7FEFF 		bl	USBUART_GetConfiguration
  79              	.LVL6:
  80 002a 0028     		cmp	r0, #0
  81 002c 60D0     		beq	.L4
  60:main.c        ****         {
  61:main.c        ****             /* Check for input data from host. */
  62:main.c        ****             if (0u != USBUART_DataIsReady())
  82              		.loc 1 62 0
  83 002e FFF7FEFF 		bl	USBUART_DataIsReady
  84              	.LVL7:
  85 0032 B0B1     		cbz	r0, .L5
  63:main.c        ****             {
  64:main.c        ****                 /* Read received data and re-enable OUT endpoint. */
  65:main.c        ****                 count = USBUART_GetAll(buffer); /* Recibe todo el paquete y re-habilita puntos de s
  86              		.loc 1 65 0
  87 0034 0EA8     		add	r0, sp, #56
  88 0036 FFF7FEFF 		bl	USBUART_GetAll
  89              	.LVL8:
  66:main.c        ****                 //sprintf(lineStr,"\nLlegaron %d caracteres",count-1);
  67:main.c        ****                 
  68:main.c        ****                 /* Wait until component is ready to send data to host. */
  69:main.c        ****                 //while (0u == USBUART_CDCIsReady()){}
  70:main.c        ****                 //USBUART_PutString(lineStr);
  71:main.c        ****                 if (0u != count)
  90              		.loc 1 71 0
  91 003a 0446     		mov	r4, r0
  92 003c 88B1     		cbz	r0, .L5
  93              	.LVL9:
  94              	.L6:
  72:main.c        ****                 {
  73:main.c        ****                     /* Wait until component is ready to send data to host. */
  74:main.c        ****                     while (0u == USBUART_CDCIsReady()){}
  95              		.loc 1 74 0 discriminator 1
  96 003e FFF7FEFF 		bl	USBUART_CDCIsReady
  97              	.LVL10:
ARM GAS  C:\Users\gusta\AppData\Local\Temp\ccQ0bztc.s 			page 4


  98 0042 0028     		cmp	r0, #0
  99 0044 FBD0     		beq	.L6
  75:main.c        ****                     /* Send data back to host. */
  76:main.c        ****                     USBUART_PutData(buffer, count); /* Devuelve la información que haya entrado */
 100              		.loc 1 76 0
 101 0046 2146     		mov	r1, r4
 102 0048 0EA8     		add	r0, sp, #56
 103 004a FFF7FEFF 		bl	USBUART_PutData
 104              	.LVL11:
  77:main.c        ****                     
  78:main.c        ****                     /* Wait until component is ready to send data to host. */
  79:main.c        ****                     //while (0u == USBUART_CDCIsReady()){}
  80:main.c        ****                     //USBUART_PutString("\n Envio confirmado\n");
  81:main.c        ****                     /* If the last sent packet is exactly the maximum packet 
  82:main.c        ****                     *  size, it is followed by a zero-length packet to assure
  83:main.c        ****                     *  that the end of the segment is properly identified by 
  84:main.c        ****                     *  the terminal.
  85:main.c        ****                     */
  86:main.c        ****                     if (USBUART_BUFFER_SIZE == count)
 105              		.loc 1 86 0
 106 004e 402C     		cmp	r4, #64
 107 0050 07D1     		bne	.L5
 108              	.L7:
  87:main.c        ****                     {
  88:main.c        ****                         /* Wait until component is ready to send data to PC. */
  89:main.c        ****                         while (0u == USBUART_CDCIsReady())
 109              		.loc 1 89 0 discriminator 1
 110 0052 FFF7FEFF 		bl	USBUART_CDCIsReady
 111              	.LVL12:
 112 0056 0028     		cmp	r0, #0
 113 0058 FBD0     		beq	.L7
  90:main.c        ****                         {
  91:main.c        ****                         }
  92:main.c        **** 
  93:main.c        ****                         /* Send zero-length packet to PC. */
  94:main.c        ****                         USBUART_PutData(NULL, 0u);
 114              		.loc 1 94 0
 115 005a 0021     		movs	r1, #0
 116 005c 0846     		mov	r0, r1
 117 005e FFF7FEFF 		bl	USBUART_PutData
 118              	.LVL13:
 119              	.L5:
  95:main.c        ****                     }
  96:main.c        ****                 }
  97:main.c        ****             }
  98:main.c        **** 
  99:main.c        **** 
 100:main.c        ****         #if (CY_PSOC3 || CY_PSOC5LP)
 101:main.c        ****             /* Check for Line settings change. */
 102:main.c        ****             /* Control de cambios en la configuracion */
 103:main.c        ****             state = USBUART_IsLineChanged();
 120              		.loc 1 103 0
 121 0062 FFF7FEFF 		bl	USBUART_IsLineChanged
 122              	.LVL14:
 104:main.c        ****             if (0u != state)
 123              		.loc 1 104 0
 124 0066 0446     		mov	r4, r0
ARM GAS  C:\Users\gusta\AppData\Local\Temp\ccQ0bztc.s 			page 5


 125 0068 0028     		cmp	r0, #0
 126 006a 41D0     		beq	.L4
 105:main.c        ****             {
 106:main.c        ****                 /* Output Line Coding settings. */
 107:main.c        ****                 /* Muestra la configuracion*/
 108:main.c        ****                 if (0u != (state & USBUART_LINE_CODING_CHANGED))
 127              		.loc 1 108 0
 128 006c 10F0010F 		tst	r0, #1
 129 0070 21D0     		beq	.L8
 109:main.c        ****                 {                  
 110:main.c        ****                     /* Get string to output. */
 111:main.c        ****                     /*Obtiene los valores de configuración del puerto en un String*/
 112:main.c        ****                     sprintf(lineStr,"\nBR:%4ld %d%c%s", USBUART_GetDTERate(),\
 130              		.loc 1 112 0
 131 0072 FFF7FEFF 		bl	USBUART_GetDTERate
 132              	.LVL15:
 133 0076 0746     		mov	r7, r0
 113:main.c        ****                     (uint16) USBUART_GetDataBits(),\
 134              		.loc 1 113 0
 135 0078 FFF7FEFF 		bl	USBUART_GetDataBits
 136              	.LVL16:
 137 007c 8046     		mov	r8, r0
 114:main.c        ****                     parity[(uint16) USBUART_GetParityType()][0],\
 138              		.loc 1 114 0
 139 007e FFF7FEFF 		bl	USBUART_GetParityType
 140              	.LVL17:
 141 0082 264E     		ldr	r6, .L20
 142 0084 56F82030 		ldr	r3, [r6, r0, lsl #2]
 143 0088 93F80090 		ldrb	r9, [r3]	@ zero_extendqisi2
 115:main.c        ****                     stop[(uint16) USBUART_GetCharFormat()]);
 144              		.loc 1 115 0
 145 008c FFF7FEFF 		bl	USBUART_GetCharFormat
 146              	.LVL18:
 112:main.c        ****                     (uint16) USBUART_GetDataBits(),\
 147              		.loc 1 112 0
 148 0090 06EB8000 		add	r0, r6, r0, lsl #2
 149 0094 4369     		ldr	r3, [r0, #20]
 150 0096 0193     		str	r3, [sp, #4]
 151 0098 CDF80090 		str	r9, [sp]
 152 009c 4346     		mov	r3, r8
 153 009e 3A46     		mov	r2, r7
 154 00a0 1F49     		ldr	r1, .L20+4
 155 00a2 02A8     		add	r0, sp, #8
 156 00a4 FFF7FEFF 		bl	sprintf
 157              	.LVL19:
 158              	.L9:
 116:main.c        ****                     
 117:main.c        ****                     /* Wait until component is ready to send data to host. */
 118:main.c        ****                     while (0u == USBUART_CDCIsReady()){}
 159              		.loc 1 118 0 discriminator 1
 160 00a8 FFF7FEFF 		bl	USBUART_CDCIsReady
 161              	.LVL20:
 162 00ac 0028     		cmp	r0, #0
 163 00ae FBD0     		beq	.L9
 119:main.c        ****                     USBUART_PutString(lineStr); /* Envía configuración del puerto */
 164              		.loc 1 119 0
 165 00b0 02A8     		add	r0, sp, #8
ARM GAS  C:\Users\gusta\AppData\Local\Temp\ccQ0bztc.s 			page 6


 166 00b2 FFF7FEFF 		bl	USBUART_PutString
 167              	.LVL21:
 168              	.L8:
 120:main.c        **** 
 121:main.c        ****                 }
 122:main.c        **** 
 123:main.c        ****                 /* Output Line Control settings. */
 124:main.c        ****                 if (0u != (state & USBUART_LINE_CONTROL_CHANGED))
 169              		.loc 1 124 0
 170 00b6 14F0020F 		tst	r4, #2
 171 00ba 19D0     		beq	.L4
 125:main.c        ****                 {                   
 126:main.c        ****                     /* Get string to output. */
 127:main.c        ****                     state = USBUART_GetLineControl();
 172              		.loc 1 127 0
 173 00bc FFF7FEFF 		bl	USBUART_GetLineControl
 174              	.LVL22:
 175 00c0 C0B2     		uxtb	r0, r0
 176              	.LVL23:
 128:main.c        ****                     sprintf(lineStr,"\nDTR:%s,RTS:%s",  (0u != (state & USBUART_LINE_CONTROL_DTR)) 
 177              		.loc 1 128 0
 178 00c2 10F0010F 		tst	r0, #1
 179 00c6 01D0     		beq	.L17
 180 00c8 164A     		ldr	r2, .L20+8
 181 00ca 00E0     		b	.L10
 182              	.L17:
 183 00cc 164A     		ldr	r2, .L20+12
 184              	.L10:
 185              		.loc 1 128 0 is_stmt 0 discriminator 4
 186 00ce 10F0020F 		tst	r0, #2
 187 00d2 01D0     		beq	.L18
 188              		.loc 1 128 0
 189 00d4 134B     		ldr	r3, .L20+8
 190 00d6 00E0     		b	.L11
 191              	.L18:
 192 00d8 134B     		ldr	r3, .L20+12
 193              	.L11:
 194              		.loc 1 128 0 discriminator 8
 195 00da 1449     		ldr	r1, .L20+16
 196 00dc 02A8     		add	r0, sp, #8
 197              	.LVL24:
 198 00de FFF7FEFF 		bl	sprintf
 199              	.LVL25:
 200              	.L12:
 129:main.c        ****                                                       (0u != (state & USBUART_LINE_CONTROL_RTS)) ? 
 130:main.c        ****                     
 131:main.c        ****                     /* Wait until component is ready to send data to host. */
 132:main.c        ****                     while (0u == USBUART_CDCIsReady()){}
 201              		.loc 1 132 0 is_stmt 1 discriminator 1
 202 00e2 FFF7FEFF 		bl	USBUART_CDCIsReady
 203              	.LVL26:
 204 00e6 0028     		cmp	r0, #0
 205 00e8 FBD0     		beq	.L12
 133:main.c        ****                     USBUART_PutString(lineStr);
 206              		.loc 1 133 0
 207 00ea 02A8     		add	r0, sp, #8
 208 00ec FFF7FEFF 		bl	USBUART_PutString
ARM GAS  C:\Users\gusta\AppData\Local\Temp\ccQ0bztc.s 			page 7


 209              	.LVL27:
 210              	.L4:
 134:main.c        ****                 }
 135:main.c        ****             }
 136:main.c        ****         #endif /* (CY_PSOC3 || CY_PSOC5LP) */
 137:main.c        ****         }
 138:main.c        ****         
 139:main.c        ****         /* Control rápido de comunicación */
 140:main.c        ****         /* Se envía un string cada vez que se presiona el botón de la placa */
 141:main.c        ****         if(BoardLed_Read() != ledState){
 211              		.loc 1 141 0
 212 00f0 FFF7FEFF 		bl	BoardLed_Read
 213              	.LVL28:
 214 00f4 8542     		cmp	r5, r0
 215 00f6 8ED0     		beq	.L13
 142:main.c        ****             ledState = BoardLed_Read();
 216              		.loc 1 142 0
 217 00f8 FFF7FEFF 		bl	BoardLed_Read
 218              	.LVL29:
 219 00fc 0446     		mov	r4, r0
 220 00fe 0546     		mov	r5, r0
 221              	.LVL30:
 222              	.L14:
 143:main.c        ****             /* Wait until component is ready to send data to host. */
 144:main.c        ****             while (0u == USBUART_CDCIsReady()){}
 223              		.loc 1 144 0 discriminator 1
 224 0100 FFF7FEFF 		bl	USBUART_CDCIsReady
 225              	.LVL31:
 226 0104 0028     		cmp	r0, #0
 227 0106 FBD0     		beq	.L14
 145:main.c        ****             if( ledState ) USBUART_PutString("\n\rLed encendido");
 228              		.loc 1 145 0
 229 0108 1CB1     		cbz	r4, .L15
 230              		.loc 1 145 0 is_stmt 0 discriminator 1
 231 010a 0948     		ldr	r0, .L20+20
 232 010c FFF7FEFF 		bl	USBUART_PutString
 233              	.LVL32:
 234 0110 81E7     		b	.L13
 235              	.L15:
 146:main.c        ****             else USBUART_PutString("\n\rLed apagado");
 236              		.loc 1 146 0 is_stmt 1
 237 0112 0848     		ldr	r0, .L20+24
 238 0114 FFF7FEFF 		bl	USBUART_PutString
 239              	.LVL33:
 240 0118 7DE7     		b	.L13
 241              	.L21:
 242 011a 00BF     		.align	2
 243              	.L20:
 244 011c 00000000 		.word	.LANCHOR0
 245 0120 08000000 		.word	.LC2
 246 0124 00000000 		.word	.LC0
 247 0128 04000000 		.word	.LC1
 248 012c 18000000 		.word	.LC3
 249 0130 28000000 		.word	.LC4
 250 0134 38000000 		.word	.LC5
 251              		.cfi_endproc
 252              	.LFE64:
ARM GAS  C:\Users\gusta\AppData\Local\Temp\ccQ0bztc.s 			page 8


 253              		.size	main, .-main
 254              		.global	stop
 255              		.global	parity
 256              		.data
 257              		.align	2
 258              		.set	.LANCHOR0,. + 0
 259              		.type	parity, %object
 260              		.size	parity, 20
 261              	parity:
 262 0000 54000000 		.word	.LC9
 263 0004 5C000000 		.word	.LC10
 264 0008 60000000 		.word	.LC11
 265 000c 68000000 		.word	.LC12
 266 0010 70000000 		.word	.LC13
 267              		.type	stop, %object
 268              		.size	stop, 12
 269              	stop:
 270 0014 48000000 		.word	.LC6
 271 0018 4C000000 		.word	.LC7
 272 001c 50000000 		.word	.LC8
 273              		.section	.rodata.str1.4,"aMS",%progbits,1
 274              		.align	2
 275              	.LC0:
 276 0000 4F4E00   		.ascii	"ON\000"
 277 0003 00       		.space	1
 278              	.LC1:
 279 0004 4F464600 		.ascii	"OFF\000"
 280              	.LC2:
 281 0008 0A42523A 		.ascii	"\012BR:%4ld %d%c%s\000"
 281      25346C64 
 281      20256425 
 281      63257300 
 282              	.LC3:
 283 0018 0A445452 		.ascii	"\012DTR:%s,RTS:%s\000"
 283      3A25732C 
 283      5254533A 
 283      257300
 284 0027 00       		.space	1
 285              	.LC4:
 286 0028 0A0D4C65 		.ascii	"\012\015Led encendido\000"
 286      6420656E 
 286      63656E64 
 286      69646F00 
 287              	.LC5:
 288 0038 0A0D4C65 		.ascii	"\012\015Led apagado\000"
 288      64206170 
 288      61676164 
 288      6F00
 289 0046 0000     		.space	2
 290              	.LC6:
 291 0048 3100     		.ascii	"1\000"
 292 004a 0000     		.space	2
 293              	.LC7:
 294 004c 312E3500 		.ascii	"1.5\000"
 295              	.LC8:
 296 0050 3200     		.ascii	"2\000"
 297 0052 0000     		.space	2
ARM GAS  C:\Users\gusta\AppData\Local\Temp\ccQ0bztc.s 			page 9


 298              	.LC9:
 299 0054 4E6F6E65 		.ascii	"None\000"
 299      00
 300 0059 000000   		.space	3
 301              	.LC10:
 302 005c 4F646400 		.ascii	"Odd\000"
 303              	.LC11:
 304 0060 4576656E 		.ascii	"Even\000"
 304      00
 305 0065 000000   		.space	3
 306              	.LC12:
 307 0068 4D61726B 		.ascii	"Mark\000"
 307      00
 308 006d 000000   		.space	3
 309              	.LC13:
 310 0070 53706163 		.ascii	"Space\000"
 310      6500
 311              		.text
 312              	.Letext0:
 313              		.file 2 "d:\\cypress\\psoc creator\\4.4\\psoc creator\\import\\gnu\\arm\\5.4.1\\arm-none-eabi\\inc
 314              		.file 3 "d:\\cypress\\psoc creator\\4.4\\psoc creator\\import\\gnu\\arm\\5.4.1\\arm-none-eabi\\inc
 315              		.file 4 "Generated_Source\\PSoC5/cytypes.h"
 316              		.file 5 "Generated_Source\\PSoC5/core_cm3.h"
 317              		.file 6 "Generated_Source\\PSoC5/USBUART.h"
 318              		.file 7 "Generated_Source\\PSoC5/BoardLed.h"
 319              		.file 8 "Generated_Source\\PSoC5/USBUART_cdc.h"
 320              		.file 9 "d:\\cypress\\psoc creator\\4.4\\psoc creator\\import\\gnu\\arm\\5.4.1\\arm-none-eabi\\inc